; Function Attrs: mustprogress uwtable
define dso_local noundef zeroext i1 @_ZN4pbrt7Barrier5BlockEv(ptr noundef nonnull align 8 dereferenceable(96) %0) local_unnamed_addr #0 align 2 personality ptr @__gxx_personality_v0 {
  %2 = alloca %"class.std::unique_lock", align 8
  %3 = alloca i32, align 4
  %4 = alloca i32, align 4
  call void @llvm.lifetime.start.p0(i64 16, ptr nonnull %2) #25
  store ptr %0, ptr %2, align 8, !tbaa !25
  %5 = getelementptr inbounds nuw i8, ptr %2, i64 8
  %6 = tail call noundef i32 @pthread_mutex_lock(ptr noundef nonnull align 8 dereferenceable(40) %0) #25
  %.not.i.i.i = icmp eq i32 %6, 0
  br i1 %.not.i.i.i, label %_ZNSt11unique_lockISt5mutexEC2ERS0_.exit, label %7

7:                                                ; preds = %1
  tail call void @_ZSt20__throw_system_errori(i32 noundef %6) #27
  unreachable

_ZNSt11unique_lockISt5mutexEC2ERS0_.exit:         ; preds = %1
  store i8 1, ptr %5, align 8, !tbaa !29
  %8 = getelementptr inbounds nuw i8, ptr %0, i64 88
  %9 = load i32, ptr %8, align 8, !tbaa !30
  %10 = add nsw i32 %9, -1
  store i32 %10, ptr %8, align 8, !tbaa !30
  call void @llvm.lifetime.start.p0(i64 4, ptr nonnull %3) #25
  store i32 %10, ptr %3, align 4, !tbaa !37
  call void @llvm.lifetime.start.p0(i64 4, ptr nonnull %4) #25
  store i32 0, ptr %4, align 4, !tbaa !37
  %11 = icmp sgt i32 %9, 0
  br i1 %11, label %15, label %12

12:                                               ; preds = %_ZNSt11unique_lockISt5mutexEC2ERS0_.exit
  invoke void @_ZN4pbrt8LogFatalIJRA11_KcRA2_S1_S3_RiS5_S6_EEEvNS_8LogLevelEPS1_iS8_DpOT_(i32 noundef 2, ptr noundef nonnull @.str.1, i32 noundef 34, ptr noundef nonnull @.str.2, ptr noundef nonnull align 1 dereferenceable(11) @.str.3, ptr noundef nonnull align 1 dereferenceable(2) @.str.4, ptr noundef nonnull align 1 dereferenceable(11) @.str.3, ptr noundef nonnull align 4 dereferenceable(4) %3, ptr noundef nonnull align 1 dereferenceable(2) @.str.4, ptr noundef nonnull align 4 dereferenceable(4) %4) #27
          to label %13 unwind label %.thread

13:                                               ; preds = %12
  unreachable

.thread:                                          ; preds = %12
  %14 = landingpad { ptr, i32 }
          cleanup
  call void @llvm.lifetime.end.p0(i64 4, ptr nonnull %4) #25
  call void @llvm.lifetime.end.p0(i64 4, ptr nonnull %3) #25
  br label %35

15:                                               ; preds = %_ZNSt11unique_lockISt5mutexEC2ERS0_.exit
  call void @llvm.lifetime.end.p0(i64 4, ptr nonnull %4) #25
  call void @llvm.lifetime.end.p0(i64 4, ptr nonnull %3) #25
  %.not = icmp eq i32 %10, 0
  %16 = getelementptr inbounds nuw i8, ptr %0, i64 40
  br i1 %.not, label %"_ZNSt18condition_variable4waitIZN4pbrt7Barrier5BlockEvE3$_0EEvRSt11unique_lockISt5mutexET_.exit.thread", label %.lr.ph.i

.lr.ph.i:                                         ; preds = %15, %.noexc
  invoke void @_ZNSt18condition_variable4waitERSt11unique_lockISt5mutexE(ptr noundef nonnull align 8 dereferenceable(48) %16, ptr noundef nonnull align 8 dereferenceable(9) %2)
          to label %.noexc unwind label %32

.noexc:                                           ; preds = %.lr.ph.i
  %.val.val.i = load i32, ptr %8, align 8, !tbaa !30
  %17 = icmp eq i32 %.val.val.i, 0
  br i1 %17, label %"_ZNSt18condition_variable4waitIZN4pbrt7Barrier5BlockEvE3$_0EEvRSt11unique_lockISt5mutexET_.exit", label %.lr.ph.i, !llvm.loop !38

"_ZNSt18condition_variable4waitIZN4pbrt7Barrier5BlockEvE3$_0EEvRSt11unique_lockISt5mutexET_.exit.thread": ; preds = %15
  tail call void @_ZNSt18condition_variable10notify_allEv(ptr noundef nonnull align 8 dereferenceable(48) %16) #25
  %18 = getelementptr inbounds nuw i8, ptr %0, i64 92
  %19 = load i32, ptr %18, align 4, !tbaa !40
  %20 = add nsw i32 %19, -1
  store i32 %20, ptr %18, align 4, !tbaa !40
  br label %25

"_ZNSt18condition_variable4waitIZN4pbrt7Barrier5BlockEvE3$_0EEvRSt11unique_lockISt5mutexET_.exit": ; preds = %.noexc
  %.pre6 = load i8, ptr %5, align 8, !tbaa !29, !range !41
  %21 = trunc nuw i8 %.pre6 to i1
  %22 = getelementptr inbounds nuw i8, ptr %0, i64 92
  %23 = load i32, ptr %22, align 4, !tbaa !40
  %24 = add nsw i32 %23, -1
  store i32 %24, ptr %22, align 4, !tbaa !40
  br i1 %21, label %25, label %_ZNSt11unique_lockISt5mutexED2Ev.exit

25:                                               ; preds = %"_ZNSt18condition_variable4waitIZN4pbrt7Barrier5BlockEvE3$_0EEvRSt11unique_lockISt5mutexET_.exit.thread", %"_ZNSt18condition_variable4waitIZN4pbrt7Barrier5BlockEvE3$_0EEvRSt11unique_lockISt5mutexET_.exit"
  %26 = phi i32 [ %20, %"_ZNSt18condition_variable4waitIZN4pbrt7Barrier5BlockEvE3$_0EEvRSt11unique_lockISt5mutexET_.exit.thread" ], [ %24, %"_ZNSt18condition_variable4waitIZN4pbrt7Barrier5BlockEvE3$_0EEvRSt11unique_lockISt5mutexET_.exit" ]
  %27 = load ptr, ptr %2, align 8, !tbaa !25
  %.not.i.i = icmp eq ptr %27, null
  br i1 %.not.i.i, label %_ZNSt11unique_lockISt5mutexED2Ev.exit, label %28

28:                                               ; preds = %25
  %29 = call noundef i32 @pthread_mutex_unlock(ptr noundef nonnull align 8 dereferenceable(40) %27) #25
  br label %_ZNSt11unique_lockISt5mutexED2Ev.exit

_ZNSt11unique_lockISt5mutexED2Ev.exit:            ; preds = %"_ZNSt18condition_variable4waitIZN4pbrt7Barrier5BlockEvE3$_0EEvRSt11unique_lockISt5mutexET_.exit", %25, %28
  %30 = phi i32 [ %24, %"_ZNSt18condition_variable4waitIZN4pbrt7Barrier5BlockEvE3$_0EEvRSt11unique_lockISt5mutexET_.exit" ], [ %26, %25 ], [ %26, %28 ]
  %31 = icmp eq i32 %30, 0
  call void @llvm.lifetime.end.p0(i64 16, ptr nonnull %2) #25
  ret i1 %31

32:                                               ; preds = %.lr.ph.i
  %33 = landingpad { ptr, i32 }
          cleanup
  %.pre = load i8, ptr %5, align 8, !tbaa !29, !range !41
  %34 = trunc nuw i8 %.pre to i1
  br i1 %34, label %35, label %_ZNSt11unique_lockISt5mutexED2Ev.exit5

35:                                               ; preds = %.thread, %32
  %.pn9 = phi { ptr, i32 } [ %14, %.thread ], [ %33, %32 ]
  %36 = load ptr, ptr %2, align 8, !tbaa !25
  %.not.i.i4 = icmp eq ptr %36, null
  br i1 %.not.i.i4, label %_ZNSt11unique_lockISt5mutexED2Ev.exit5, label %37

37:                                               ; preds = %35
  %38 = call noundef i32 @pthread_mutex_unlock(ptr noundef nonnull align 8 dereferenceable(40) %36) #25
  br label %_ZNSt11unique_lockISt5mutexED2Ev.exit5

_ZNSt11unique_lockISt5mutexED2Ev.exit5:           ; preds = %32, %35, %37
  %.pn8 = phi { ptr, i32 } [ %33, %32 ], [ %.pn9, %35 ], [ %.pn9, %37 ]
  call void @llvm.lifetime.end.p0(i64 16, ptr nonnull %2) #25
  resume { ptr, i32 } %.pn8
}